; Function Attrs: mustprogress nofree norecurse nosync nounwind willreturn memory(read, inaccessiblemem: none) uwtable
define noundef float @_ZNK12b2WheelJoint20GetJointAngularSpeedEv(ptr nocapture noundef nonnull readonly align 8 dereferenceable(308) %this) local_unnamed_addr #9 align 2 {
entry:
  %m_bodyA = getelementptr inbounds i8, ptr %this, i64 96
  %0 = load ptr, ptr %m_bodyA, align 8
  %m_angularVelocity = getelementptr inbounds i8, ptr %0, i64 72
  %1 = load float, ptr %m_angularVelocity, align 8
  %m_bodyB = getelementptr inbounds i8, ptr %this, i64 104
  %2 = load ptr, ptr %m_bodyB, align 8
  %m_angularVelocity2 = getelementptr inbounds i8, ptr %2, i64 72
  %3 = load float, ptr %m_angularVelocity2, align 8
  %sub = fsub float %3, %1
  ret float %sub
}